Microchip MPLAB XC8 Compiler V2.32

Linker command line:

-W-3 --edf=C:\Program Files\Microchip\xc8\v2.32\pic\dat\en_msgs.txt -cn \
  -h+dist/default/production\DrinkMeter.X.production.sym \
  --cmf=dist/default/production\DrinkMeter.X.production.cmf -z -Q16F1938 \
  -oC:\Users\dexte\AppData\Local\Temp\xcAs3uc.4 --defsym=__MPLAB_BUILD=1 \
  -Mdist/default/production/DrinkMeter.X.production.map -E1 \
  -ver=XC8 Compiler --acfsm=1493 -ASTACK=02110h-023EFh -pstack=STACK \
  -ACODE=00h-07FFhx8 -ASTRCODE=00h-03FFFh -ASTRING=00h-0FFhx64 \
  -ACONST=00h-0FFhx64 -AENTRY=00h-0FFhx64 -ACOMMON=070h-07Fh \
  -ABANK0=020h-06Fh -ABANK1=0A0h-0EFh -ABANK2=0120h-016Fh \
  -ABANK3=01A0h-01EFh -ABANK4=0220h-026Fh -ABANK5=02A0h-02EFh \
  -ABANK6=0320h-036Fh -ABANK7=03A0h-03EFh -ABANK8=0420h-046Fh \
  -ABANK9=04A0h-04EFh -ABANK10=0520h-056Fh -ABANK11=05A0h-05EFh \
  -ABANK12=0620h-064Fh -ABIGRAM=02000h-023EFh \
  -ARAM=020h-06Fh,0A0h-0EFh,0120h-016Fh,01A0h-01EFh,0220h-026Fh,02A0h-02EFh,0320h-036Fh,03A0h-03EFh,0420h-046Fh,04A0h-04EFh,0520h-056Fh,05A0h-05EFh,0620h-064Fh \
  -AABS1=020h-07Fh,0A0h-0EFh,0120h-016Fh,01A0h-01EFh,0220h-026Fh,02A0h-02EFh,0320h-036Fh,03A0h-03EFh,0420h-046Fh,04A0h-04EFh,0520h-056Fh,05A0h-05EFh,0620h-064Fh \
  -ASFR0=00h-01Fh -ASFR1=080h-09Fh -ASFR2=0100h-011Fh -ASFR3=0180h-019Fh \
  -ASFR4=0200h-021Fh -ASFR5=0280h-029Fh -ASFR6=0300h-031Fh \
  -ASFR7=0380h-039Fh -ASFR8=0400h-041Fh -ASFR9=0480h-049Fh \
  -ASFR10=0500h-051Fh -ASFR11=0580h-059Fh -ASFR12=0600h-061Fh \
  -ASFR13=0680h-06EFh -ASFR14=0700h-076Fh -ASFR15=0780h-07EFh \
  -ASFR16=0800h-086Fh -ASFR17=0880h-08EFh -ASFR18=0900h-096Fh \
  -ASFR19=0980h-09EFh -ASFR20=0A00h-0A6Fh -ASFR21=0A80h-0AEFh \
  -ASFR22=0B00h-0B6Fh -ASFR23=0B80h-0BEFh -ASFR24=0C00h-0C6Fh \
  -ASFR25=0C80h-0CEFh -ASFR26=0D00h-0D6Fh -ASFR27=0D80h-0DEFh \
  -ASFR28=0E00h-0E6Fh -ASFR29=0E80h-0EEFh -ASFR30=0F00h-0F6Fh \
  -ASFR31=0F80h-0FEFh -ACONFIG=08007h-08008h -DCONFIG=2 \
  -AIDLOC=08000h-08003h -DIDLOC=2 -AEEDATA=00h-0FFh/0F000h \
  -peeprom_data=EEDATA -DEEDATA=2 -DCODE=2 -DSTRCODE=2 -DSTRING=2 -DCONST=2 \
  -DENTRY=2 -preset_vec=00h,intentry,init,end_init -ppowerup=CODE \
  -pcinit=CODE -pfunctab=ENTRY -k \
  C:\Users\dexte\AppData\Local\Temp\xcAs3uc.o \
  dist/default/production\DrinkMeter.X.production.o 

Object code version is 3.11

Machine type is 16F1938



                Name                               Link     Load   Length Selector   Space Scale
C:\Users\dexte\AppData\Local\Temp\xcAs3uc.o
                end_init                              2        2        2        0       0
                reset_vec                             0        0        2        0       0
                config                             8007     8007        2        0       4
dist/default/production\DrinkMeter.X.production.o
                cinit                               7E1      7E1       1F      FC2       0
                config                             8007     8007        2        0       4
                text66                             1000     1000        7     1DFE       0
                text65                             103B     103B       1B     2076       0
                text64                             1EBE     1EBE        4     3D7C       0
                text63                             1ED6     1ED6        A     3DAC       0
                text62                             1385     1385       5A     270A       0
                text61                              832      832       A3     1064       0
                text60                             1EE0     1EE0        A     3DC0       0
                text59                             1EEA     1EEA        A     3DD4       0
                text58                              C45      C45       E3     188A       0
                text57                                B        B       5F       16       0
                text56                             122C     122C       53     2458       0
                text55                             1ECE     1ECE        8     3D9C       0
                text54                             1EF4     1EF4        A     3DE8       0
                text53                             1EFE     1EFE        A     3DFC       0
                text52                             1F08     1F08        A     3E10       0
                text51                             1F12     1F12        A     3E24       0
                text50                             1F1C     1F1C        A     3E38       0
                text49                             1F26     1F26        A     3E4C       0
                text48                             1FCC     1FCC       1A     3F98       0
                text47                             1FE6     1FE6       1A     3FCC       0
                text46                             1F30     1F30        A     3E60       0
                text45                             14FD     14FD       70     29FA       0
                text44                             127F     127F       56     24FE       0
                text43                             13DF     13DF       5B     27BE       0
                text42                              ACF      ACF       BA     159E       0
                text41                             1F73     1F73       14     3EE6       0
                text40                             1F60     1F60       13     3EC0       0
                text39                             1F44     1F44        C     3E88       0
                text38                             1F3A     1F3A        A     3E74       0
                text37                                4        4        7        0       0
                text36                             1F50     1F50       10     3EA0       0
                text35                             1F9D     1F9D       17     3F3A       0
                text34                             1F87     1F87       16     3F0E       0
                text33                             12D5     12D5       57     25AA       0
                text32                             1094     1094       24     2128       0
                text31                             112D     112D       39     225A       0
                text30                             119F     119F       3E     233E       0
                text29                             1056     1056       1B     20AC       0
                text28                              97A      97A       A9     12F4       0
                text27                             1FB4     1FB4       18     3F68       0
                text26                              EFF      EFF      101     1DFE       0
                text25                              D28      D28       EA     1A50       0
                text24                             1007     1007       1A     200E       0
                text23                              801      801        1     1002       0
                text22                             11DD     11DD       4F     23BA       0
                text21                             1104     1104       29     2208       0
                text20                             1021     1021       1A     2042       0
                text19                             132C     132C       59     2658       0
                text18                               6A       6A      170       D4       0
                text17                             143A     143A       5C     2874       0
                text16                             1653     1653       84     2CA6       0
                text15                             156D     156D       71     2ADA       0
                text14                              E12      E12       ED     1C24       0
                text13                              38E      38E      1FC      71C       0
                text12                             1166     1166       39     22CC       0
                text11                             10DC     10DC       28     21B8       0
                text10                             16D7     16D7       8F     2DAE       0
                text9                              1496     1496       67     292C       0
                text8                              1071     1071       23     20E2       0
                text7                               58A      58A      257      B14       0
                text6                               1DA      1DA      1B4      3B4       0
                text5                              15DE     15DE       75     2BBC       0
                text4                               A23      A23       AC     1446       0
                text3                              1766     1766       9A     2ECC       0
                text2                               8D5      8D5       A5     11AA       0
                text1                               802      802       30     1004       0
                maintext                            B89      B89       BC     1712       0
                cstackBANK0                          20       20       50       20       1
                cstackCOMMON                         70       70        E       70       1
                cstackBANK1                          A0       A0       50       A0       1
                clrtext                            1EC2     1EC2        6     3D84       0
                inittext                           1EC8     1EC8        6     3D90       0
                bssBANK3                            1A0      1A0       20      1A0       1
                dataBANK2                           120      120       24      120       1
                bssBANK2                            144      144       13      120       1
                stringtext10                       2047     2047        2     4000       0
                stringtext9                        2044     2044        3     4000       0
                stringtext8                        2041     2041        3     4000       0
                stringtext7                        203E     203E        3     4000       0
                stringtext6                        2038     2038        6     4000       0
                stringtext5                        2030     2030        8     4000       0
                stringtext4                        2026     2026        A     4000       0
                stringtext3                        201B     201B        B     4000       0
                stringtext2                        200F     200F        C     4000       0
                stringtext1                        2000     2000        F     4000       0
                idataBANK2                         10B8     10B8       24     2170       0

TOTAL           Name                               Link     Load   Length     Space
        CLASS   STACK          

        CLASS   CODE           
                end_init                              2        2        2         0
                cinit                               7E1      7E1       1F         0
                reset_vec                             0        0        2         0
                text66                             1000     1000        7         0
                text65                             103B     103B       1B         0
                text64                             1EBE     1EBE        4         0
                text63                             1ED6     1ED6        A         0
                text62                             1385     1385       5A         0
                text61                              832      832       A3         0
                text60                             1EE0     1EE0        A         0
                text59                             1EEA     1EEA        A         0
                text58                              C45      C45       E3         0
                text57                                B        B       5F         0
                text56                             122C     122C       53         0
                text55                             1ECE     1ECE        8         0
                text54                             1EF4     1EF4        A         0
                text53                             1EFE     1EFE        A         0
                text52                             1F08     1F08        A         0
                text51                             1F12     1F12        A         0
                text50                             1F1C     1F1C        A         0
                text49                             1F26     1F26        A         0
                text48                             1FCC     1FCC       1A         0
                text47                             1FE6     1FE6       1A         0
                text46                             1F30     1F30        A         0
                text45                             14FD     14FD       70         0
                text44                             127F     127F       56         0
                text43                             13DF     13DF       5B         0
                text42                              ACF      ACF       BA         0
                text41                             1F73     1F73       14         0
                text40                             1F60     1F60       13         0
                text39                             1F44     1F44        C         0
                text38                             1F3A     1F3A        A         0
                text37                                4        4        7         0
                text36                             1F50     1F50       10         0
                text35                             1F9D     1F9D       17         0
                text34                             1F87     1F87       16         0
                text33                             12D5     12D5       57         0
                text32                             1094     1094       24         0
                text31                             112D     112D       39         0
                text30                             119F     119F       3E         0
                text29                             1056     1056       1B         0
                text28                              97A      97A       A9         0
                text27                             1FB4     1FB4       18         0
                text26                              EFF      EFF      101         0
                text25                              D28      D28       EA         0
                text24                             1007     1007       1A         0
                text23                              801      801        1         0
                text22                             11DD     11DD       4F         0
                text21                             1104     1104       29         0
                text20                             1021     1021       1A         0
                text19                             132C     132C       59         0
                text18                               6A       6A      170         0
                text17                             143A     143A       5C         0
                text16                             1653     1653       84         0
                text15                             156D     156D       71         0
                text14                              E12      E12       ED         0
                text13                              38E      38E      1FC         0
                text12                             1166     1166       39         0
                text11                             10DC     10DC       28         0
                text10                             16D7     16D7       8F         0
                text9                              1496     1496       67         0
                text8                              1071     1071       23         0
                text7                               58A      58A      257         0
                text6                               1DA      1DA      1B4         0
                text5                              15DE     15DE       75         0
                text4                               A23      A23       AC         0
                text3                              1766     1766       9A         0
                text2                               8D5      8D5       A5         0
                text1                               802      802       30         0
                maintext                            B89      B89       BC         0
                clrtext                            1EC2     1EC2        6         0
                inittext                           1EC8     1EC8        6         0
                idataBANK2                         10B8     10B8       24         0

        CLASS   STRCODE        
                stringtext10                       2047     2047        2         0
                stringtext9                        2044     2044        3         0
                stringtext8                        2041     2041        3         0
                stringtext7                        203E     203E        3         0
                stringtext6                        2038     2038        6         0
                stringtext5                        2030     2030        8         0
                stringtext4                        2026     2026        A         0
                stringtext3                        201B     201B        B         0
                stringtext2                        200F     200F        C         0
                stringtext1                        2000     2000        F         0

        CLASS   STRING         

        CLASS   CONST          

        CLASS   ENTRY          

        CLASS   COMMON         
                cstackCOMMON                         70       70        E         1

        CLASS   BANK0          
                cstackBANK0                          20       20       50         1

        CLASS   BANK1          
                cstackBANK1                          A0       A0       50         1

        CLASS   BANK2          
                dataBANK2                           120      120       24         1
                bssBANK2                            144      144       13         1

        CLASS   BANK3          
                bssBANK3                            1A0      1A0       20         1

        CLASS   BANK4          

        CLASS   BANK5          

        CLASS   BANK6          

        CLASS   BANK7          

        CLASS   BANK8          

        CLASS   BANK9          

        CLASS   BANK10         

        CLASS   BANK11         

        CLASS   BANK12         

        CLASS   BIGRAM         

        CLASS   RAM            

        CLASS   ABS1           
                abs_s1                               7E       7E        2         1

        CLASS   SFR0           

        CLASS   SFR1           

        CLASS   SFR2           

        CLASS   SFR3           

        CLASS   SFR4           

        CLASS   SFR5           

        CLASS   SFR6           

        CLASS   SFR7           

        CLASS   SFR8           

        CLASS   SFR9           

        CLASS   SFR10          

        CLASS   SFR11          

        CLASS   SFR12          

        CLASS   SFR13          

        CLASS   SFR14          

        CLASS   SFR15          

        CLASS   SFR16          

        CLASS   SFR17          

        CLASS   SFR18          

        CLASS   SFR19          

        CLASS   SFR20          

        CLASS   SFR21          

        CLASS   SFR22          

        CLASS   SFR23          

        CLASS   SFR24          

        CLASS   SFR25          

        CLASS   SFR26          

        CLASS   SFR27          

        CLASS   SFR28          

        CLASS   SFR29          

        CLASS   SFR30          

        CLASS   SFR31          

        CLASS   CONFIG         
                config                             8007     8007        2         4

        CLASS   IDLOC          

        CLASS   EEDATA         

        CLASS   BANK31         

        CLASS   BANK30         

        CLASS   BANK29         

        CLASS   BANK28         

        CLASS   BANK27         

        CLASS   BANK26         

        CLASS   BANK25         

        CLASS   BANK24         

        CLASS   BANK23         

        CLASS   BANK22         

        CLASS   BANK21         

        CLASS   BANK20         

        CLASS   BANK19         

        CLASS   BANK18         

        CLASS   BANK17         

        CLASS   BANK16         

        CLASS   BANK15         

        CLASS   BANK14         

        CLASS   BANK13         



SEGMENTS        Name                           Load    Length   Top    Selector   Space  Class     Delta

                reset_vec                      000000  00000B  00000B         0       0  CODE        2
                text57                         00000B  00005F  00006A        16       0  CODE        2
                cstackBANK0                    000020  000050  000070        20       1  BANK0       1
                cstackCOMMON                   000070  00000E  00007E        70       1  COMMON      1
                cstackBANK1                    0000A0  000050  0000F0        A0       1  BANK1       1
                text18                         00006A  000170  0001DA        D4       0  CODE        2
                dataBANK2                      000120  000037  000157       120       1  BANK2       1
                bssBANK3                       0001A0  000020  0001C0       1A0       1  BANK3       1
                text6                          0001DA  0001B4  00038E       3B4       0  CODE        2
                text13                         00038E  0001FC  00058A       71C       0  CODE        2
                text7                          00058A  000257  0007E1       B14       0  CODE        2
                cinit                          0007E1  00001F  000800       FC2       0  CODE        2
                text23                         000801  000001  000802      1002       0  CODE        2
                text1                          000802  000030  000832      1004       0  CODE        2
                text61                         000832  0000A3  0008D5      1064       0  CODE        2
                text2                          0008D5  0000A5  00097A      11AA       0  CODE        2
                text28                         00097A  0000A9  000A23      12F4       0  CODE        2
                text4                          000A23  0000AC  000ACF      1446       0  CODE        2
                text42                         000ACF  0000BA  000B89      159E       0  CODE        2
                maintext                       000B89  0000BC  000C45      1712       0  CODE        2
                text58                         000C45  0000E3  000D28      188A       0  CODE        2
                text25                         000D28  0000EA  000E12      1A50       0  CODE        2
                text14                         000E12  0000ED  000EFF      1C24       0  CODE        2
                text26                         000EFF  000108  001007      1DFE       0  CODE        2
                text24                         001007  00001A  001021      200E       0  CODE        2
                text20                         001021  00001A  00103B      2042       0  CODE        2
                text65                         00103B  00001B  001056      2076       0  CODE        2
                text29                         001056  00001B  001071      20AC       0  CODE        2
                text8                          001071  000023  001094      20E2       0  CODE        2
                text32                         001094  000024  0010B8      2128       0  CODE        2
                idataBANK2                     0010B8  000024  0010DC      2170       0  CODE        2
                text11                         0010DC  000028  001104      21B8       0  CODE        2
                text21                         001104  000029  00112D      2208       0  CODE        2
                text31                         00112D  000039  001166      225A       0  CODE        2
                text12                         001166  000039  00119F      22CC       0  CODE        2
                text30                         00119F  00003E  0011DD      233E       0  CODE        2
                text22                         0011DD  00004F  00122C      23BA       0  CODE        2
                text56                         00122C  000053  00127F      2458       0  CODE        2
                text44                         00127F  000056  0012D5      24FE       0  CODE        2
                text33                         0012D5  000057  00132C      25AA       0  CODE        2
                text19                         00132C  000059  001385      2658       0  CODE        2
                text62                         001385  00005A  0013DF      270A       0  CODE        2
                text43                         0013DF  00005B  00143A      27BE       0  CODE        2
                text17                         00143A  00005C  001496      2874       0  CODE        2
                text9                          001496  000067  0014FD      292C       0  CODE        2
                text45                         0014FD  000070  00156D      29FA       0  CODE        2
                text15                         00156D  000071  0015DE      2ADA       0  CODE        2
                text5                          0015DE  000075  001653      2BBC       0  CODE        2
                text16                         001653  000084  0016D7      2CA6       0  CODE        2
                text10                         0016D7  00008F  001766      2DAE       0  CODE        2
                text3                          001766  00009A  001800      2ECC       0  CODE        2
                text64                         001EBE  000004  001EC2      3D7C       0  CODE        2
                clrtext                        001EC2  000006  001EC8      3D84       0  CODE        2
                inittext                       001EC8  000006  001ECE      3D90       0  CODE        2
                text55                         001ECE  000008  001ED6      3D9C       0  CODE        2
                text63                         001ED6  00000A  001EE0      3DAC       0  CODE        2
                text60                         001EE0  00000A  001EEA      3DC0       0  CODE        2
                text59                         001EEA  00000A  001EF4      3DD4       0  CODE        2
                text54                         001EF4  00000A  001EFE      3DE8       0  CODE        2
                text53                         001EFE  00000A  001F08      3DFC       0  CODE        2
                text52                         001F08  00000A  001F12      3E10       0  CODE        2
                text51                         001F12  00000A  001F1C      3E24       0  CODE        2
                text50                         001F1C  00000A  001F26      3E38       0  CODE        2
                text49                         001F26  00000A  001F30      3E4C       0  CODE        2
                text46                         001F30  00000A  001F3A      3E60       0  CODE        2
                text38                         001F3A  00000A  001F44      3E74       0  CODE        2
                text39                         001F44  00000C  001F50      3E88       0  CODE        2
                text36                         001F50  000010  001F60      3EA0       0  CODE        2
                text40                         001F60  000013  001F73      3EC0       0  CODE        2
                text41                         001F73  000014  001F87      3EE6       0  CODE        2
                text34                         001F87  000016  001F9D      3F0E       0  CODE        2
                text35                         001F9D  000017  001FB4      3F3A       0  CODE        2
                text27                         001FB4  000018  001FCC      3F68       0  CODE        2
                text48                         001FCC  00001A  001FE6      3F98       0  CODE        2
                text47                         001FE6  00001A  002000      3FCC       0  CODE        2
                stringtext1                    002000  000049  002049      4000       0  STRCODE     2


UNUSED ADDRESS RANGES

        Name                Unused          Largest block    Delta
        BANK10           00520-0056F              50           1
        BANK11           005A0-005EF              50           1
        BANK12           00620-0064F              30           1
        BANK2            00157-0016F              19           1
        BANK3            001C0-001EF              30           1
        BANK4            00220-0026F              50           1
        BANK5            002A0-002EF              50           1
        BANK6            00320-0036F              50           1
        BANK7            003A0-003EF              50           1
        BANK8            00420-0046F              50           1
        BANK9            004A0-004EF              50           1
        BIGRAM           02000-023EF             3F0           1
        CODE             00800-00800               1           2
                         01800-01EBD             6BE
                         02049-03FFF             800
        CONST            00800-00800               1           2
                         01800-01EBD             100
                         02049-03FFF             100
        EEDATA           0F000-0F0FF             100           2
        ENTRY            00800-00800               1           2
                         01800-01EBD             100
                         02049-03FFF             100
        IDLOC            08000-08003               4           2
        RAM              00157-0016F              19           1
                         001C0-001EF              30
                         00220-0026F              50
                         002A0-002EF              50
                         00320-0036F              50
                         003A0-003EF              50
                         00420-0046F              50
                         004A0-004EF              50
                         00520-0056F              50
                         005A0-005EF              50
                         00620-0064F              30
        SFR0             00000-0001F              20           1
        SFR1             00080-0009F              20           1
        SFR10            00500-0051F              20           1
        SFR11            00580-0059F              20           1
        SFR12            00600-0061F              20           1
        SFR13            00680-006EF              70           1
        SFR14            00700-0076F              70           1
        SFR15            00780-007EF              70           1
        SFR16            00800-0086F              70           1
        SFR17            00880-008EF              70           1
        SFR18            00900-0096F              70           1
        SFR19            00980-009EF              70           1
        SFR2             00100-0011F              20           1
        SFR20            00A00-00A6F              70           1
        SFR21            00A80-00AEF              70           1
        SFR22            00B00-00B6F              70           1
        SFR23            00B80-00BEF              70           1
        SFR24            00C00-00C6F              70           1
        SFR25            00C80-00CEF              70           1
        SFR26            00D00-00D6F              70           1
        SFR27            00D80-00DEF              70           1
        SFR28            00E00-00E6F              70           1
        SFR29            00E80-00EEF              70           1
        SFR3             00180-0019F              20           1
        SFR30            00F00-00F6F              70           1
        SFR31            00F80-00FEF              70           1
        SFR4             00200-0021F              20           1
        SFR5             00280-0029F              20           1
        SFR6             00300-0031F              20           1
        SFR7             00380-0039F              20           1
        SFR8             00400-0041F              20           1
        SFR9             00480-0049F              20           1
        STACK            02110-023EF             2E0           1
        STRCODE          00800-00800               1           2
                         01800-01EBD             6BE
                         02049-03FFF            1FB7
        STRING           00800-00800               1           2
                         01800-01EBD             100
                         02049-03FFF             100

                                  Symbol Table

?__Umul8_16                      cstackCOMMON 00070
?___aodiv                        cstackBANK0  00020
?___aomod                        cstackBANK0  00020
?___awdiv                        cstackCOMMON 00070
?___awmod                        cstackCOMMON 00070
?___fldiv                        cstackBANK0  00020
?___flmul                        cstackBANK0  0003A
?___fltol                        cstackBANK0  00054
?___lldiv                        cstackCOMMON 00070
?___lodiv                        cstackBANK0  00020
?___lomod                        cstackBANK0  00020
?___xxtofl                       cstackCOMMON 00070
?_abs                            cstackCOMMON 00073
?_dtoa                           cstackBANK0  00030
?_get_CELL_DAT_VAL               cstackCOMMON 00070
?_get_scale_val                  cstackBANK0  00020
?_pad                            cstackBANK0  00024
?_sprintf                        cstackBANK1  000A5
?_strlen                         cstackCOMMON 00070
?_strncmp                        cstackCOMMON 00070
?_utoa                           cstackBANK0  00030
?_vfpfcnvrt                      cstackBANK0  0004E
?_vfprintf                       cstackBANK0  0006D
CLK_SET_HIGH@p                   cstackCOMMON 00071
CLK_SET_LOW@p                    cstackCOMMON 00071
CLK_SET_OUTPUT@p                 cstackCOMMON 00071
DIO_SET_HIGH@p                   cstackCOMMON 00071
DIO_SET_INPUT@p                  cstackCOMMON 00071
DIO_SET_LOW@p                    cstackCOMMON 00071
DIO_SET_OUTPUT@p                 cstackCOMMON 00071
_ANSELA                          (abs)        0018C
_ANSELB                          (abs)        0018D
_APFCON                          (abs)        0011D
_BORCON                          (abs)        00116
_CLK_SET_HIGH                    text54       01EF4
_CLK_SET_LOW                     text53       01EFE
_CLK_SET_OUTPUT                  text52       01F08
_DIO_SET_HIGH                    text51       01F12
_DIO_SET_INPUT                   text46       01F30
_DIO_SET_LOW                     text50       01F1C
_DIO_SET_OUTPUT                  text49       01F26
_LATA                            (abs)        0010C
_LATB                            (abs)        0010D
_LATC                            (abs)        0010E
_LATE                            (abs)        00110
_OPTION_REGbits                  (abs)        00095
_OSCCON                          (abs)        00099
_OSCILLATOR_Initialize           text66       01000
_OSCTUNE                         (abs)        00098
_PIN_MANAGER_Initialize          text65       0103B
_PORTBbits                       (abs)        0000D
_RC5                             (abs)        00075
_RC6                             (abs)        00076
_RC7                             (abs)        00077
_SSPADD                          (abs)        00212
_SSPBUF                          (abs)        00211
_SSPCON1                         (abs)        00215
_SSPCON1bits                     (abs)        00215
_SSPCON2                         (abs)        00216
_SSPCON2bits                     (abs)        00216
_SSPSTAT                         (abs)        00214
_SSPSTATbits                     (abs)        00214
_SYSTEM_Initialize               text63       01ED6
_TRISA                           (abs)        0008C
_TRISB                           (abs)        0008D
_TRISC                           (abs)        0008E
_TRISE                           (abs)        00090
_WDTCON                          (abs)        00097
_WDT_Initialize                  text64       01EBE
_WPUB                            (abs)        0020D
_WPUE                            (abs)        00210
__Habs1                          abs1         00000
__Hbank0                         bank0        00000
__Hbank1                         bank1        00000
__Hbank10                        bank10       00000
__Hbank11                        bank11       00000
__Hbank12                        bank12       00000
__Hbank13                        bank13       00000
__Hbank14                        bank14       00000
__Hbank15                        bank15       00000
__Hbank16                        bank16       00000
__Hbank17                        bank17       00000
__Hbank18                        bank18       00000
__Hbank19                        bank19       00000
__Hbank2                         bank2        00000
__Hbank20                        bank20       00000
__Hbank21                        bank21       00000
__Hbank22                        bank22       00000
__Hbank23                        bank23       00000
__Hbank24                        bank24       00000
__Hbank25                        bank25       00000
__Hbank26                        bank26       00000
__Hbank27                        bank27       00000
__Hbank28                        bank28       00000
__Hbank29                        bank29       00000
__Hbank3                         bank3        00000
__Hbank30                        bank30       00000
__Hbank31                        bank31       00000
__Hbank4                         bank4        00000
__Hbank5                         bank5        00000
__Hbank6                         bank6        00000
__Hbank7                         bank7        00000
__Hbank8                         bank8        00000
__Hbank9                         bank9        00000
__Hbigram                        bigram       00000
__HbssBANK2                      bssBANK2     00000
__HbssBANK3                      bssBANK3     00000
__Hcinit                         cinit        00800
__Hclrtext                       clrtext      00000
__Hcode                          code         00000
__Hcommon                        common       00000
__Hconfig                        config       08009
__HcstackBANK0                   cstackBANK0  00000
__HcstackBANK1                   cstackBANK1  00000
__HcstackCOMMON                  cstackCOMMON 00000
__HdataBANK2                     dataBANK2    00000
__Heeprom_data                   eeprom_data  00000
__Hend_init                      end_init     00004
__Hfunctab                       functab      00000
__HidataBANK2                    idataBANK2   00000
__Hinit                          init         00002
__Hinittext                      inittext     00000
__Hintentry                      intentry     00002
__Hmaintext                      maintext     00000
__Hpowerup                       powerup      00000
__Hram                           ram          00000
__Hreset_vec                     reset_vec    00002
__Hsfr0                          sfr0         00000
__Hsfr1                          sfr1         00000
__Hsfr10                         sfr10        00000
__Hsfr11                         sfr11        00000
__Hsfr12                         sfr12        00000
__Hsfr13                         sfr13        00000
__Hsfr14                         sfr14        00000
__Hsfr15                         sfr15        00000
__Hsfr16                         sfr16        00000
__Hsfr17                         sfr17        00000
__Hsfr18                         sfr18        00000
__Hsfr19                         sfr19        00000
__Hsfr2                          sfr2         00000
__Hsfr20                         sfr20        00000
__Hsfr21                         sfr21        00000
__Hsfr22                         sfr22        00000
__Hsfr23                         sfr23        00000
__Hsfr24                         sfr24        00000
__Hsfr25                         sfr25        00000
__Hsfr26                         sfr26        00000
__Hsfr27                         sfr27        00000
__Hsfr28                         sfr28        00000
__Hsfr29                         sfr29        00000
__Hsfr3                          sfr3         00000
__Hsfr30                         sfr30        00000
__Hsfr31                         sfr31        00000
__Hsfr4                          sfr4         00000
__Hsfr5                          sfr5         00000
__Hsfr6                          sfr6         00000
__Hsfr7                          sfr7         00000
__Hsfr8                          sfr8         00000
__Hsfr9                          sfr9         00000
__Hspace_0                       (abs)        02049
__Hspace_1                       (abs)        001C0
__Hspace_2                       (abs)        00000
__Hspace_3                       (abs)        00000
__Hspace_4                       (abs)        10010
__Hstack                         stack        00000
__Hstrings                       strings      00000
__Hstringtext1                   stringtext1  00000
__Hstringtext10                  stringtext10 00000
__Hstringtext11                  stringtext11 00000
__Hstringtext2                   stringtext2  00000
__Hstringtext3                   stringtext3  00000
__Hstringtext4                   stringtext4  00000
__Hstringtext5                   stringtext5  00000
__Hstringtext6                   stringtext6  00000
__Hstringtext7                   stringtext7  00000
__Hstringtext8                   stringtext8  00000
__Hstringtext9                   stringtext9  00000
__Htext                          text         00000
__Labs1                          abs1         00000
__Lbank0                         bank0        00000
__Lbank1                         bank1        00000
__Lbank10                        bank10       00000
__Lbank11                        bank11       00000
__Lbank12                        bank12       00000
__Lbank13                        bank13       00000
__Lbank14                        bank14       00000
__Lbank15                        bank15       00000
__Lbank16                        bank16       00000
__Lbank17                        bank17       00000
__Lbank18                        bank18       00000
__Lbank19                        bank19       00000
__Lbank2                         bank2        00000
__Lbank20                        bank20       00000
__Lbank21                        bank21       00000
__Lbank22                        bank22       00000
__Lbank23                        bank23       00000
__Lbank24                        bank24       00000
__Lbank25                        bank25       00000
__Lbank26                        bank26       00000
__Lbank27                        bank27       00000
__Lbank28                        bank28       00000
__Lbank29                        bank29       00000
__Lbank3                         bank3        00000
__Lbank30                        bank30       00000
__Lbank31                        bank31       00000
__Lbank4                         bank4        00000
__Lbank5                         bank5        00000
__Lbank6                         bank6        00000
__Lbank7                         bank7        00000
__Lbank8                         bank8        00000
__Lbank9                         bank9        00000
__Lbigram                        bigram       00000
__LbssBANK2                      bssBANK2     00000
__LbssBANK3                      bssBANK3     00000
__Lcinit                         cinit        007E1
__Lclrtext                       clrtext      00000
__Lcode                          code         00000
__Lcommon                        common       00000
__Lconfig                        config       00000
__LcstackBANK0                   cstackBANK0  00000
__LcstackBANK1                   cstackBANK1  00000
__LcstackCOMMON                  cstackCOMMON 00000
__LdataBANK2                     dataBANK2    00000
__Leeprom_data                   eeprom_data  00000
__Lend_init                      end_init     00002
__Lfunctab                       functab      00000
__LidataBANK2                    idataBANK2   00000
__Linit                          init         00002
__Linittext                      inittext     00000
__Lintentry                      intentry     00002
__Lmaintext                      maintext     00000
__Lpowerup                       powerup      00000
__Lram                           ram          00000
__Lreset_vec                     reset_vec    00000
__Lsfr0                          sfr0         00000
__Lsfr1                          sfr1         00000
__Lsfr10                         sfr10        00000
__Lsfr11                         sfr11        00000
__Lsfr12                         sfr12        00000
__Lsfr13                         sfr13        00000
__Lsfr14                         sfr14        00000
__Lsfr15                         sfr15        00000
__Lsfr16                         sfr16        00000
__Lsfr17                         sfr17        00000
__Lsfr18                         sfr18        00000
__Lsfr19                         sfr19        00000
__Lsfr2                          sfr2         00000
__Lsfr20                         sfr20        00000
__Lsfr21                         sfr21        00000
__Lsfr22                         sfr22        00000
__Lsfr23                         sfr23        00000
__Lsfr24                         sfr24        00000
__Lsfr25                         sfr25        00000
__Lsfr26                         sfr26        00000
__Lsfr27                         sfr27        00000
__Lsfr28                         sfr28        00000
__Lsfr29                         sfr29        00000
__Lsfr3                          sfr3         00000
__Lsfr30                         sfr30        00000
__Lsfr31                         sfr31        00000
__Lsfr4                          sfr4         00000
__Lsfr5                          sfr5         00000
__Lsfr6                          sfr6         00000
__Lsfr7                          sfr7         00000
__Lsfr8                          sfr8         00000
__Lsfr9                          sfr9         00000
__Lspace_0                       (abs)        00000
__Lspace_1                       (abs)        00000
__Lspace_2                       (abs)        00000
__Lspace_3                       (abs)        00000
__Lspace_4                       (abs)        00000
__Lstack                         stack        00000
__Lstrings                       strings      00000
__Lstringtext1                   stringtext1  00000
__Lstringtext10                  stringtext10 00000
__Lstringtext11                  stringtext11 00000
__Lstringtext2                   stringtext2  00000
__Lstringtext3                   stringtext3  00000
__Lstringtext4                   stringtext4  00000
__Lstringtext5                   stringtext5  00000
__Lstringtext6                   stringtext6  00000
__Lstringtext7                   stringtext7  00000
__Lstringtext8                   stringtext8  00000
__Lstringtext9                   stringtext9  00000
__Ltext                          text         00000
__S0                             (abs)        02049
__S1                             (abs)        001C0
__S2                             (abs)        00000
__S3                             (abs)        00000
__Umul8_16                       text8        01071
__Umul8_16@multiplicand          cstackCOMMON 00070
__Umul8_16@multiplier            cstackCOMMON 00078
__Umul8_16@product               cstackCOMMON 00074
__Umul8_16@word_mpld             cstackCOMMON 00076
___aodiv                         text26       00EFF
___aodiv@counter                 cstackCOMMON 00071
___aodiv@dividend                cstackBANK0  00028
___aodiv@divisor                 cstackBANK0  00020
___aodiv@quotient                cstackCOMMON 00073
___aodiv@sign                    cstackCOMMON 00072
___aomod                         text25       00D28
___aomod@counter                 cstackCOMMON 00071
___aomod@dividend                cstackBANK0  00028
___aomod@divisor                 cstackBANK0  00020
___aomod@sign                    cstackCOMMON 00072
___awdiv                         text57       0000B
___awdiv@counter                 cstackCOMMON 00075
___awdiv@dividend                cstackCOMMON 00072
___awdiv@divisor                 cstackCOMMON 00070
___awdiv@quotient                cstackCOMMON 00077
___awdiv@sign                    cstackCOMMON 00076
___awmod                         text56       0122C
___awmod@counter                 cstackCOMMON 00075
___awmod@dividend                cstackCOMMON 00072
___awmod@divisor                 cstackCOMMON 00070
___awmod@sign                    cstackCOMMON 00076
___fldiv                         text6        001DA
___fldiv@a                       cstackBANK0  00020
___fldiv@aexp                    cstackBANK0  00039
___fldiv@b                       cstackBANK0  00024
___fldiv@bexp                    cstackBANK0  00038
___fldiv@grs                     cstackBANK0  00034
___fldiv@new_exp                 cstackBANK0  00032
___fldiv@rem                     cstackBANK0  0002D
___fldiv@sign                    cstackBANK0  00031
___flmul                         text7        0058A
___flmul@a                       cstackBANK0  0003E
___flmul@aexp                    cstackBANK0  0004C
___flmul@b                       cstackBANK0  0003A
___flmul@bexp                    cstackBANK0  0004D
___flmul@grs                     cstackBANK0  00048
___flmul@prod                    cstackBANK0  0004E
___flmul@sign                    cstackBANK0  00047
___flmul@temp                    cstackBANK0  00052
___fltol                         text5        015DE
___fltol@exp1                    cstackBANK0  0005E
___fltol@f1                      cstackBANK0  00054
___fltol@sign1                   cstackBANK0  0005D
___int_sp                        stack        00000
___latbits                       (abs)        00003
___lldiv                         text62       01385
___lldiv@counter                 cstackCOMMON 0007D
___lldiv@dividend                cstackCOMMON 00074
___lldiv@divisor                 cstackCOMMON 00070
___lldiv@quotient                cstackCOMMON 00079
___lodiv                         text16       01653
___lodiv@counter                 cstackCOMMON 00079
___lodiv@dividend                cstackBANK0  00028
___lodiv@divisor                 cstackBANK0  00020
___lodiv@quotient                cstackCOMMON 00071
___lomod                         text15       0156D
___lomod@counter                 cstackCOMMON 00071
___lomod@dividend                cstackBANK0  00028
___lomod@divisor                 cstackBANK0  00020
___sp                            stack        00000
___stackhi                       (abs)        023EF
___stacklo                       (abs)        02110
___xxtofl                        text4        00A23
___xxtofl@arg                    cstackCOMMON 0007A
___xxtofl@exp                    cstackCOMMON 00079
___xxtofl@sign                   cstackCOMMON 00078
___xxtofl@val                    cstackCOMMON 00070
__end_of_CLK_SET_HIGH            text54       01EFE
__end_of_CLK_SET_LOW             text53       01F08
__end_of_CLK_SET_OUTPUT          text52       01F12
__end_of_DIO_SET_HIGH            text51       01F1C
__end_of_DIO_SET_INPUT           text46       01F3A
__end_of_DIO_SET_LOW             text50       01F26
__end_of_DIO_SET_OUTPUT          text49       01F30
__end_of_OSCILLATOR_Initialize   text66       01007
__end_of_PIN_MANAGER_Initialize  text65       01056
__end_of_SYSTEM_Initialize       text63       01EE0
__end_of_WDT_Initialize          text64       01EC2
__end_of__Umul8_16               text8        01094
__end_of___aodiv                 text26       01000
__end_of___aomod                 text25       00E12
__end_of___awdiv                 text57       0006A
__end_of___awmod                 text56       0127F
__end_of___fldiv                 text6        0038E
__end_of___flmul                 text7        007E1
__end_of___fltol                 text5        01653
__end_of___lldiv                 text62       013DF
__end_of___lodiv                 text16       016D7
__end_of___lomod                 text15       015DE
__end_of___xxtofl                text4        00ACF
__end_of__initialization         cinit        007FD
__end_of_abs                     text24       01021
__end_of_calc_percentage         text2        0097A
__end_of_command                 text33       0132C
__end_of_dtoa                    text18       001DA
__end_of_encode_digit            text55       01ED6
__end_of_fputc                   text22       0122C
__end_of_fputs                   text21       0112D
__end_of_get_CELL_DAT_VAL        text61       008D5
__end_of_get_DIO_PIN_value       text45       0156D
__end_of_get_scale_val           text58       00D28
__end_of_i2c_start               text38       01F44
__end_of_i2c_stop                text37       0000B
__end_of_i2c_wait                text39       01F50
__end_of_i2c_write               text36       01F60
__end_of_initialize              text10       01766
__end_of_initialize_digit        text40       01F73
__end_of_lcd_backlight           text34       01F9D
__end_of_lcd_clear               text30       011DD
__end_of_lcd_cmd                 text35       01FB4
__end_of_lcd_init                text28       00A23
__end_of_lcd_print               text32       010B8
__end_of_lcd_print_with          text27       01FCC
__end_of_lcd_set_cursor          text31       01166
__end_of_main                    maintext     00C45
__end_of_pad                     text19       01385
__end_of_print_digit             text42       00B89
__end_of_print_gram              text9        014FD
__end_of_putch                   text23       00802
__end_of_scale_convert_gram      text3        01800
__end_of_set_CELL_CLK_HIGH       text60       01EEA
__end_of_set_CELL_CLK_LOW        text59       01EF4
__end_of_set_brigthness          text41       01F87
__end_of_set_max_gram            text1        00832
__end_of_set_segments            text43       0143A
__end_of_sprintf                 text11       01104
__end_of_start_segment           text48       01FE6
__end_of_stop_segment            text47       02000
__end_of_strlen                  text20       0103B
__end_of_strncmp                 text17       01496
__end_of_utoa                    text14       00EFF
__end_of_vfpfcnvrt               text13       0058A
__end_of_vfprintf                text12       0119F
__end_of_write4bits              text29       01071
__end_of_write_byte              text44       012D5
__initialization                 cinit        007E1
__pbssBANK2                      bssBANK2     00144
__pbssBANK3                      bssBANK3     001A0
__pcstackBANK0                   cstackBANK0  00020
__pcstackBANK1                   cstackBANK1  000A0
__pcstackCOMMON                  cstackCOMMON 00070
__pdataBANK2                     dataBANK2    00120
__pidataBANK2                    idataBANK2   010B8
__pmaintext                      maintext     00B89
__pstringtext1                   stringtext1  02000
__pstringtext10                  stringtext10 02047
__pstringtext11                  stringtext11 00000
__pstringtext2                   stringtext2  0200F
__pstringtext3                   stringtext3  0201B
__pstringtext4                   stringtext4  02026
__pstringtext5                   stringtext5  02030
__pstringtext6                   stringtext6  02038
__pstringtext7                   stringtext7  0203E
__pstringtext8                   stringtext8  02041
__pstringtext9                   stringtext9  02044
__ptext1                         text1        00802
__ptext10                        text10       016D7
__ptext11                        text11       010DC
__ptext12                        text12       01166
__ptext13                        text13       0038E
__ptext14                        text14       00E12
__ptext15                        text15       0156D
__ptext16                        text16       01653
__ptext17                        text17       0143A
__ptext18                        text18       0006A
__ptext19                        text19       0132C
__ptext2                         text2        008D5
__ptext20                        text20       01021
__ptext21                        text21       01104
__ptext22                        text22       011DD
__ptext23                        text23       00801
__ptext24                        text24       01007
__ptext25                        text25       00D28
__ptext26                        text26       00EFF
__ptext27                        text27       01FB4
__ptext28                        text28       0097A
__ptext29                        text29       01056
__ptext3                         text3        01766
__ptext30                        text30       0119F
__ptext31                        text31       0112D
__ptext32                        text32       01094
__ptext33                        text33       012D5
__ptext34                        text34       01F87
__ptext35                        text35       01F9D
__ptext36                        text36       01F50
__ptext37                        text37       00004
__ptext38                        text38       01F3A
__ptext39                        text39       01F44
__ptext4                         text4        00A23
__ptext40                        text40       01F60
__ptext41                        text41       01F73
__ptext42                        text42       00ACF
__ptext43                        text43       013DF
__ptext44                        text44       0127F
__ptext45                        text45       014FD
__ptext46                        text46       01F30
__ptext47                        text47       01FE6
__ptext48                        text48       01FCC
__ptext49                        text49       01F26
__ptext5                         text5        015DE
__ptext50                        text50       01F1C
__ptext51                        text51       01F12
__ptext52                        text52       01F08
__ptext53                        text53       01EFE
__ptext54                        text54       01EF4
__ptext55                        text55       01ECE
__ptext56                        text56       0122C
__ptext57                        text57       0000B
__ptext58                        text58       00C45
__ptext59                        text59       01EEA
__ptext6                         text6        001DA
__ptext60                        text60       01EE0
__ptext61                        text61       00832
__ptext62                        text62       01385
__ptext63                        text63       01ED6
__ptext64                        text64       01EBE
__ptext65                        text65       0103B
__ptext66                        text66       01000
__ptext7                         text7        0058A
__ptext8                         text8        01071
__ptext9                         text9        01496
__size_of_CLK_SET_HIGH           (abs)        00000
__size_of_CLK_SET_LOW            (abs)        00000
__size_of_CLK_SET_OUTPUT         (abs)        00000
__size_of_DIO_SET_HIGH           (abs)        00000
__size_of_DIO_SET_INPUT          (abs)        00000
__size_of_DIO_SET_LOW            (abs)        00000
__size_of_DIO_SET_OUTPUT         (abs)        00000
__size_of_OSCILLATOR_Initialize  (abs)        00000
__size_of_PIN_MANAGER_Initialize (abs)        00000
__size_of_SYSTEM_Initialize      (abs)        00000
__size_of_WDT_Initialize         (abs)        00000
__size_of__Umul8_16              (abs)        00000
__size_of___aodiv                (abs)        00000
__size_of___aomod                (abs)        00000
__size_of___awdiv                (abs)        00000
__size_of___awmod                (abs)        00000
__size_of___fldiv                (abs)        00000
__size_of___flmul                (abs)        00000
__size_of___fltol                (abs)        00000
__size_of___lldiv                (abs)        00000
__size_of___lodiv                (abs)        00000
__size_of___lomod                (abs)        00000
__size_of___xxtofl               (abs)        00000
__size_of_abs                    (abs)        00000
__size_of_calc_percentage        (abs)        00000
__size_of_command                (abs)        00000
__size_of_dtoa                   (abs)        00000
__size_of_encode_digit           (abs)        00000
__size_of_fputc                  (abs)        00000
__size_of_fputs                  (abs)        00000
__size_of_get_CELL_DAT_VAL       (abs)        00000
__size_of_get_DIO_PIN_value      (abs)        00000
__size_of_get_scale_val          (abs)        00000
__size_of_i2c_start              (abs)        00000
__size_of_i2c_stop               (abs)        00000
__size_of_i2c_wait               (abs)        00000
__size_of_i2c_write              (abs)        00000
__size_of_initialize             (abs)        00000
__size_of_initialize_digit       (abs)        00000
__size_of_lcd_backlight          (abs)        00000
__size_of_lcd_clear              (abs)        00000
__size_of_lcd_cmd                (abs)        00000
__size_of_lcd_init               (abs)        00000
__size_of_lcd_print              (abs)        00000
__size_of_lcd_print_with         (abs)        00000
__size_of_lcd_set_cursor         (abs)        00000
__size_of_main                   (abs)        00000
__size_of_pad                    (abs)        00000
__size_of_print_digit            (abs)        00000
__size_of_print_gram             (abs)        00000
__size_of_putch                  (abs)        00000
__size_of_scale_convert_gram     (abs)        00000
__size_of_set_CELL_CLK_HIGH      (abs)        00000
__size_of_set_CELL_CLK_LOW       (abs)        00000
__size_of_set_brigthness         (abs)        00000
__size_of_set_max_gram           (abs)        00000
__size_of_set_segments           (abs)        00000
__size_of_sprintf                (abs)        00000
__size_of_start_segment          (abs)        00000
__size_of_stop_segment           (abs)        00000
__size_of_strlen                 (abs)        00000
__size_of_strncmp                (abs)        00000
__size_of_utoa                   (abs)        00000
__size_of_vfpfcnvrt              (abs)        00000
__size_of_vfprintf               (abs)        00000
__size_of_write4bits             (abs)        00000
__size_of_write_byte             (abs)        00000
_abs                             text24       01007
_calc_percentage                 text2        008D5
_command                         text33       012D5
_dbuf                            bssBANK3     001A0
_dtoa                            text18       0006A
_dtoa$1252                       cstackBANK0  0003B
_encode_digit                    text55       01ECE
_flags                           bssBANK2     00154
_fputc                           text22       011DD
_fputs                           text21       01104
_get_CELL_DAT_VAL                text61       00832
_get_DIO_PIN_value               text45       014FD
_get_scale_val                   text58       00C45
_i2c_start                       text38       01F3A
_i2c_stop                        text37       00004
_i2c_wait                        text39       01F44
_i2c_write                       text36       01F50
_initialize                      text10       016D7
_initialize_digit                text40       01F60
_lcd_backlight                   text34       01F87
_lcd_clear                       text30       0119F
_lcd_cmd                         text35       01F9D
_lcd_init                        text28       0097A
_lcd_print                       text32       01094
_lcd_print_with                  text27       01FB4
_lcd_set_cursor                  text31       0112D
_m_brightness                    bssBANK2     00156
_main                            maintext     00B89
_nout                            bssBANK2     0014E
_pad                             text19       0132C
_prec                            bssBANK2     00152
_print_digit                     text42       00ACF
_print_gram                      text9        01496
_putch                           text23       00801
_scale_convert_gram              text3        01766
_segdata                         dataBANK2    0012C
_set_CELL_CLK_HIGH               text60       01EE0
_set_CELL_CLK_LOW                text59       01EEA
_set_brigthness                  text41       01F73
_set_max_gram                    text1        00802
_set_segments                    text43       013DF
_sprintf                         text11       010DC
_start_segment                   text48       01FCC
_stop_segment                    text47       01FE6
_strlen                          text20       01021
_strncmp                         text17       0143A
_utoa                            text14       00E12
_vfpfcnvrt                       text13       0038E
_vfprintf                        text12       01166
_width                           bssBANK2     00150
_write4bits                      text29       01056
_write_byte                      text44       0127F
abs@a                            cstackCOMMON 00073
btemp                            (abs)        0007E
calc_percentage@p                cstackBANK0  0006C
clear_ram0                       clrtext      01EC2
command@highnib                  cstackCOMMON 00077
command@lownib                   cstackCOMMON 00078
command@mode                     cstackCOMMON 00074
command@p                        cstackCOMMON 00079
command@val                      cstackCOMMON 00073
dtoa@d                           cstackBANK0  00030
dtoa@fp                          cstackBANK0  0003F
dtoa@i                           cstackBANK0  0004C
dtoa@n                           cstackBANK0  00044
dtoa@p                           cstackBANK0  0003D
dtoa@s                           cstackBANK0  00042
dtoa@w                           cstackBANK0  00040
encode_digit@digit               cstackCOMMON 00079
encode_digit@p                   cstackCOMMON 0007A
end_of_initialization            cinit        007FD
fputc@c                          cstackCOMMON 00070
fputc@fp                         cstackCOMMON 00072
fputs@c                          cstackBANK0  00020
fputs@fp                         cstackCOMMON 00078
fputs@i                          cstackBANK0  00021
fputs@s                          cstackBANK0  00023
get_CELL_DAT_VAL@p               cstackCOMMON 00075
get_DIO_PIN_value@p              cstackCOMMON 00071
get_scale_val@i                  cstackBANK0  00031
get_scale_val@j                  cstackBANK0  0002C
get_scale_val@p                  cstackBANK0  00032
get_scale_val@scale_avg_count    cstackBANK0  00020
get_scale_val@weight_add         cstackBANK0  00028
get_scale_val@weight_count       cstackBANK0  0002D
i2c_write@data                   cstackCOMMON 00070
init_ram                         inittext     01EC8
initialize@p                     cstackBANK1  000C4
initialize@valstr                cstackBANK1  000B4
initialize_digit@p               cstackBANK0  0002D
intlevel0                        functab      00000
intlevel1                        functab      00000
intlevel2                        functab      00000
intlevel3                        functab      00000
intlevel4                        functab      00000
intlevel5                        functab      00000
lcd_backlight@p                  cstackCOMMON 00074
lcd_clear@col                    cstackBANK0  00029
lcd_clear@p                      cstackBANK0  0002A
lcd_clear@row                    cstackBANK0  00028
lcd_cmd@cmd                      cstackCOMMON 00071
lcd_cmd@p                        cstackCOMMON 00072
lcd_init@p                       cstackCOMMON 00078
lcd_print@cmd                    cstackBANK0  00020
lcd_print@p                      cstackBANK0  00021
lcd_print@str                    cstackCOMMON 0007A
lcd_print_with@col               cstackBANK0  00028
lcd_print_with@p                 cstackCOMMON 0007D
lcd_print_with@row               cstackBANK0  00029
lcd_print_with@str               cstackBANK0  00026
lcd_set_cursor@F2781             dataBANK2    00136
lcd_set_cursor@cmd               cstackBANK0  00024
lcd_set_cursor@col               cstackCOMMON 0007A
lcd_set_cursor@p                 cstackBANK0  00025
lcd_set_cursor@row               cstackCOMMON 0007B
lcd_set_cursor@row_offsets       cstackBANK0  00020
main@F2847                       dataBANK2    00120
main@F2849                       dataBANK2    0013E
main@F2851                       dataBANK2    00142
main@F2853                       bssBANK2     00144
main@drink                       cstackBANK1  000EA
main@lcd                         cstackBANK1  000D8
main@loadcell                    cstackBANK1  000DE
main@tm1637                      cstackBANK1  000DC
pad@buf                          cstackBANK0  00024
pad@fp                           cstackBANK0  0002B
pad@i                            cstackBANK0  00027
pad@p                            cstackBANK0  00025
pad@w                            cstackBANK0  00029
print_digit@F2820                dataBANK2    0013A
print_digit@data                 cstackBANK0  00026
print_digit@number               cstackCOMMON 0007D
print_digit@p                    cstackBANK0  0002A
print_digit@tmp                  cstackBANK0  0002B
print_gram@p                     cstackBANK1  000D5
print_gram@row1                  cstackBANK1  000B5
print_gram@row2                  cstackBANK1  000C5
reset_vec                        reset_vec    00000
scale_convert_gram@p             cstackBANK0  0006B
scale_convert_gram@temp          cstackBANK0  00067
set_CELL_CLK_HIGH@p              cstackCOMMON 00071
set_CELL_CLK_LOW@p               cstackCOMMON 00071
set_brigthness@brightness        cstackCOMMON 00070
set_brigthness@on                cstackCOMMON 00071
set_brigthness@p                 cstackCOMMON 00073
set_max_gram@max_gram            cstackBANK1  000B3
set_max_gram@p                   cstackBANK1  000C5
set_max_gram@valstr              cstackBANK1  000B5
set_segments@k                   cstackBANK0  00020
set_segments@length              cstackCOMMON 00079
set_segments@p                   cstackBANK0  00021
set_segments@pos                 cstackCOMMON 0007A
set_segments@segments            cstackCOMMON 00078
sprintf@ap                       cstackBANK1  000AC
sprintf@f                        cstackBANK1  000AE
sprintf@fmt                      cstackBANK1  000A5
sprintf@s                        cstackBANK1  000AD
start                            init         00002
start_initialization             cinit        007E1
start_segment@p                  cstackCOMMON 00072
stop_segment@p                   cstackCOMMON 00072
strlen@a                         cstackCOMMON 00073
strlen@s                         cstackCOMMON 00074
strncmp@_l                       cstackCOMMON 00070
strncmp@_r                       cstackCOMMON 00072
strncmp@l                        cstackCOMMON 00077
strncmp@n                        cstackCOMMON 00074
strncmp@r                        cstackCOMMON 00079
utoa@d                           cstackBANK0  00030
utoa@fp                          cstackBANK0  0003A
utoa@i                           cstackBANK0  00045
utoa@n                           cstackBANK0  0003D
utoa@p                           cstackBANK0  00038
utoa@w                           cstackBANK0  0003B
vfpfcnvrt@ap                     cstackBANK0  0004F
vfpfcnvrt@fmt                    cstackBANK0  0004E
vfpfcnvrt@fp                     cstackBANK0  0006C
vfpfcnvrt@ll                     cstackBANK0  0005C
vfpfcnvrt@llu                    cstackBANK0  00064
vfprintf@ap                      cstackBANK0  0006F
vfprintf@cfmt                    cstackBANK1  000A3
vfprintf@fmt                     cstackBANK0  0006D
vfprintf@fp                      cstackBANK1  000A2
write4bits@p                     cstackCOMMON 00075
write4bits@val                   cstackCOMMON 00073
write_byte@ack                   cstackCOMMON 00074
write_byte@b                     cstackCOMMON 00072
write_byte@data                  cstackCOMMON 00075
write_byte@i                     cstackCOMMON 00076
write_byte@p                     cstackCOMMON 00077
wtemp0                           (abs)        0007E


MODULE INFORMATION

Module		Function		Class		Link	Load	Size
C:\Program Files\Microchip\xc8\v2.32\pic\sources\c99\common\nf_sprintf.c
		_sprintf       		CODE           	10DC	0000	40

C:\Program Files\Microchip\xc8\v2.32\pic\sources\c99\common\nf_sprintf.c estimated size: 40

C:\Program Files\Microchip\xc8\v2.32\pic\sources\c99\common\awdiv.c
		___awdiv       		CODE           	000B	0000	95

C:\Program Files\Microchip\xc8\v2.32\pic\sources\c99\common\awdiv.c estimated size: 95

drink_meter.c
		_print_gram    		CODE           	1496	0000	103
		_calc_percentage		CODE           	08D5	0000	165
		_set_max_gram  		CODE           	0802	0000	48
		_initialize    		CODE           	16D7	0000	143

drink_meter.c estimated size: 459

C:\Program Files\Microchip\xc8\v2.32\pic\sources\c99\common\doprnt.c
		_vfpfcnvrt     		CODE           	038E	0000	508
		_pad           		CODE           	132C	0000	89
		_dtoa          		CODE           	006A	0000	368
		_vfprintf      		CODE           	1166	0000	57
		_utoa          		CODE           	0E12	0000	237

C:\Program Files\Microchip\xc8\v2.32\pic\sources\c99\common\doprnt.c estimated size: 1259

C:\Program Files\Microchip\xc8\v2.32\pic\sources\c99\common\lomod.c
		___lomod       		CODE           	156D	0000	113

C:\Program Files\Microchip\xc8\v2.32\pic\sources\c99\common\lomod.c estimated size: 113

i2c.c
		_i2c_start     		CODE           	1F3A	0000	10
		_i2c_write     		CODE           	1F50	0000	16
		_i2c_stop      		CODE           	0004	0000	7
		_i2c_wait      		CODE           	1F44	0000	12

i2c.c estimated size: 45

mcc_generated_files/pin_manager.c
		_PIN_MANAGER_Initialize		CODE           	103B	0000	27

mcc_generated_files/pin_manager.c estimated size: 27

C:\Program Files\Microchip\xc8\v2.32\pic\sources\c99\common\nf_fputs.c
		_fputs         		CODE           	1104	0000	41

C:\Program Files\Microchip\xc8\v2.32\pic\sources\c99\common\nf_fputs.c estimated size: 41

C:\Program Files\Microchip\xc8\v2.32\pic\sources\c99\common\putch.c
		_putch         		CODE           	0801	0000	1

C:\Program Files\Microchip\xc8\v2.32\pic\sources\c99\common\putch.c estimated size: 1

lcd_lib.c
		_lcd_cmd       		CODE           	1F9D	0000	23
		_lcd_backlight 		CODE           	1F87	0000	22
		_lcd_set_cursor		CODE           	112D	0000	57
		_lcd_clear     		CODE           	119F	0000	62
		_lcd_print     		CODE           	1094	0000	36
		_lcd_print_with		CODE           	1FB4	0000	24
		_command       		CODE           	12D5	0000	87
		_lcd_init      		CODE           	097A	0000	169
		_write4bits    		CODE           	1056	0000	27

lcd_lib.c estimated size: 507

C:\Program Files\Microchip\xc8\v2.32\pic\sources\c99\common\abs.c
		_abs           		CODE           	1007	0000	26

C:\Program Files\Microchip\xc8\v2.32\pic\sources\c99\common\abs.c estimated size: 26

C:\Program Files\Microchip\xc8\v2.32\pic\sources\c99\common\aomod.c
		___aomod       		CODE           	0D28	0000	234

C:\Program Files\Microchip\xc8\v2.32\pic\sources\c99\common\aomod.c estimated size: 234

C:\Program Files\Microchip\xc8\v2.32\pic\sources\c99\common\lodiv.c
		___lodiv       		CODE           	1653	0000	132

C:\Program Files\Microchip\xc8\v2.32\pic\sources\c99\common\lodiv.c estimated size: 132

C:\Program Files\Microchip\xc8\v2.32\pic\sources\c99\common\strncmp.c
		_strncmp       		CODE           	143A	0000	92

C:\Program Files\Microchip\xc8\v2.32\pic\sources\c99\common\strncmp.c estimated size: 92

shared
		__initialization		CODE           	07E1	0000	28

shared estimated size: 28

C:\Program Files\Microchip\xc8\v2.32\pic\sources\c99\common\sprcmul.c
		___flmul       		CODE           	058A	0000	599

C:\Program Files\Microchip\xc8\v2.32\pic\sources\c99\common\sprcmul.c estimated size: 599

loadcell.c
		_set_CELL_CLK_LOW		CODE           	1EEA	0000	10
		_get_scale_val 		CODE           	0C45	0000	227
		_scale_convert_gram		CODE           	1766	0000	154
		_set_CELL_CLK_HIGH		CODE           	1EE0	0000	10
		_get_CELL_DAT_VAL		CODE           	0832	0000	163

loadcell.c estimated size: 564

C:\Program Files\Microchip\xc8\v2.32\pic\sources\c99\common\awmod.c
		___awmod       		CODE           	122C	0000	83

C:\Program Files\Microchip\xc8\v2.32\pic\sources\c99\common\awmod.c estimated size: 83

mcc_generated_files/mcc.c
		_WDT_Initialize		CODE           	1EBE	0000	4
		_OSCILLATOR_Initialize		CODE           	1000	0000	7
		_SYSTEM_Initialize		CODE           	1ED6	0000	10

mcc_generated_files/mcc.c estimated size: 21

C:\Program Files\Microchip\xc8\v2.32\pic\sources\c99\common\sprcdiv.c
		___fldiv       		CODE           	01DA	0000	436

C:\Program Files\Microchip\xc8\v2.32\pic\sources\c99\common\sprcdiv.c estimated size: 436

C:\Program Files\Microchip\xc8\v2.32\pic\sources\c99\common\Umul8_16.c
		__Umul8_16     		CODE           	1071	0000	35

C:\Program Files\Microchip\xc8\v2.32\pic\sources\c99\common\Umul8_16.c estimated size: 35

C:\Program Files\Microchip\xc8\v2.32\pic\sources\c99\common\fltol.c
		___fltol       		CODE           	15DE	0000	117

C:\Program Files\Microchip\xc8\v2.32\pic\sources\c99\common\fltol.c estimated size: 117

C:\Program Files\Microchip\xc8\v2.32\pic\sources\c99\common\xxtofl.c
		___xxtofl      		CODE           	0A23	0000	172

C:\Program Files\Microchip\xc8\v2.32\pic\sources\c99\common\xxtofl.c estimated size: 172

C:\Program Files\Microchip\xc8\v2.32\pic\sources\c99\common\nf_fputc.c
		_fputc         		CODE           	11DD	0000	79

C:\Program Files\Microchip\xc8\v2.32\pic\sources\c99\common\nf_fputc.c estimated size: 79

C:\Program Files\Microchip\xc8\v2.32\pic\sources\c99\common\aodiv.c
		___aodiv       		CODE           	0EFF	0000	257

C:\Program Files\Microchip\xc8\v2.32\pic\sources\c99\common\aodiv.c estimated size: 257

C:\Program Files\Microchip\xc8\v2.32\pic\sources\c99\common\__lldiv.c
		___lldiv       		CODE           	1385	0000	90

C:\Program Files\Microchip\xc8\v2.32\pic\sources\c99\common\__lldiv.c estimated size: 90

main.c
		_main          		CODE           	0B89	0000	188

main.c estimated size: 188

C:\Program Files\Microchip\xc8\v2.32\pic\sources\c99\common\strlen.c
		_strlen        		CODE           	1021	0000	26

C:\Program Files\Microchip\xc8\v2.32\pic\sources\c99\common\strlen.c estimated size: 26

tm1637.c
		_set_segments  		CODE           	13DF	0000	91
		_print_digit   		CODE           	0ACF	0000	186
		_set_brigthness		CODE           	1F73	0000	20
		_CLK_SET_LOW   		CODE           	1EFE	0000	10
		_stop_segment  		CODE           	1FE6	0000	26
		_CLK_SET_HIGH  		CODE           	1EF4	0000	10
		_start_segment 		CODE           	1FCC	0000	26
		_encode_digit  		CODE           	1ECE	0000	8
		_DIO_SET_LOW   		CODE           	1F1C	0000	10
		_write_byte    		CODE           	127F	0000	86
		_DIO_SET_HIGH  		CODE           	1F12	0000	10
		_CLK_SET_OUTPUT		CODE           	1F08	0000	10
		_DIO_SET_INPUT 		CODE           	1F30	0000	10
		_get_DIO_PIN_value		CODE           	14FD	0000	112
		_DIO_SET_OUTPUT		CODE           	1F26	0000	10
		_initialize_digit		CODE           	1F60	0000	19

tm1637.c estimated size: 644

